target datalayout = "e-m:e-p270:32:32-p271:32:32-p272:64:64-i64:64-i128:128-f80:128-n8:16:32:64-S128"
target triple = "x86_64-pc-linux-gnu"

%"struct.std::_Rb_tree_header" = type { %"struct.std::_Rb_tree_node_base", i64 }
%"struct.std::_Rb_tree_node_base" = type { i32, ptr, ptr, ptr }
%class.abstract_device_t = type { ptr }
%class.mem_t = type { %class.abstract_mem_t, %"class.std::map.8", i64 }
%class.abstract_mem_t = type { %class.abstract_device_t }
%"class.std::map.8" = type { %"class.std::_Rb_tree.9" }
%"class.std::_Rb_tree.9" = type { %"struct.std::_Rb_tree<unsigned long, std::pair<const unsigned long, char *>, std::_Select1st<std::pair<const unsigned long, char *>>, std::less<unsigned long>>::_Rb_tree_impl" }
%"struct.std::_Rb_tree<unsigned long, std::pair<const unsigned long, char *>, std::_Select1st<std::pair<const unsigned long, char *>>, std::less<unsigned long>>::_Rb_tree_impl" = type { [8 x i8], %"struct.std::_Rb_tree_header" }

; Function Attrs: inlinehint mustprogress nounwind uwtable
define linkonce_odr noundef nonnull align 8 dereferenceable(8) ptr @_ZSt3minImERKT_S2_S2_(ptr noundef nonnull align 8 dereferenceable(8) %0, ptr noundef nonnull align 8 dereferenceable(8) %1) #7 comdat {
  %3 = alloca ptr, align 8
  %4 = alloca ptr, align 8
  %5 = alloca ptr, align 8
  store ptr %0, ptr %4, align 8, !tbaa !17
  store ptr %1, ptr %5, align 8, !tbaa !17
  %6 = load ptr, ptr %5, align 8, !tbaa !17
  %7 = load i64, ptr %6, align 8, !tbaa !11
  %8 = load ptr, ptr %4, align 8, !tbaa !17
  %9 = load i64, ptr %8, align 8, !tbaa !11
  %10 = icmp ult i64 %7, %9
  br i1 %10, label %11, label %13

11:                                               ; preds = %2
  %12 = load ptr, ptr %5, align 8, !tbaa !17
  store ptr %12, ptr %3, align 8
  br label %15

13:                                               ; preds = %2
  %14 = load ptr, ptr %4, align 8, !tbaa !17
  store ptr %14, ptr %3, align 8
  br label %15

15:                                               ; preds = %13, %11
  %16 = load ptr, ptr %3, align 8
  ret ptr %16
}

; Function Attrs: mustprogress uwtable
define noundef zeroext i1 @_ZN5mem_t10load_storeEmmPhb(ptr noundef nonnull align 8 dereferenceable(64) %0, i64 noundef %1, i64 noundef %2, ptr noundef %3, i1 noundef zeroext %4) #5 align 2 {
  %6 = alloca i1, align 1
  %7 = alloca ptr, align 8
  %8 = alloca i64, align 8
  %9 = alloca i64, align 8
  %10 = alloca ptr, align 8
  %11 = alloca i8, align 1
  %12 = alloca i64, align 8
  %13 = alloca i64, align 8
  %14 = alloca i64, align 8
  store ptr %0, ptr %7, align 8, !tbaa !37
  store i64 %1, ptr %8, align 8, !tbaa !11
  store i64 %2, ptr %9, align 8, !tbaa !11
  store ptr %3, ptr %10, align 8, !tbaa !22
  %15 = zext i1 %4 to i8
  store i8 %15, ptr %11, align 1, !tbaa !63
  %16 = load ptr, ptr %7, align 8
  %17 = load i64, ptr %8, align 8, !tbaa !11
  %18 = load i64, ptr %9, align 8, !tbaa !11
  %19 = add i64 %17, %18
  %20 = load i64, ptr %8, align 8, !tbaa !11
  %21 = icmp ult i64 %19, %20
  br i1 %21, label %29, label %22

22:                                               ; preds = %5
  %23 = load i64, ptr %8, align 8, !tbaa !11
  %24 = load i64, ptr %9, align 8, !tbaa !11
  %25 = add i64 %23, %24
  %26 = getelementptr inbounds nuw %class.mem_t, ptr %16, i32 0, i32 2
  %27 = load i64, ptr %26, align 8, !tbaa !39
  %28 = icmp ugt i64 %25, %27
  br i1 %28, label %29, label %30

29:                                               ; preds = %22, %5
  store i1 false, ptr %6, align 1
  br label %70

30:                                               ; preds = %22
  br label %31

31:                                               ; preds = %59, %30
  %32 = load i64, ptr %9, align 8, !tbaa !11
  %33 = icmp ugt i64 %32, 0
  br i1 %33, label %34, label %69

34:                                               ; preds = %31
  call void @llvm.lifetime.start.p0(i64 8, ptr %12) #3
  call void @llvm.lifetime.start.p0(i64 8, ptr %13) #3
  %35 = load i64, ptr %8, align 8, !tbaa !11
  %36 = urem i64 %35, 4096
  %37 = sub i64 4096, %36
  store i64 %37, ptr %13, align 8, !tbaa !11
  call void @llvm.lifetime.start.p0(i64 8, ptr %14) #3
  %38 = load i64, ptr %9, align 8, !tbaa !11
  store i64 %38, ptr %14, align 8, !tbaa !11
  %39 = call noundef nonnull align 8 dereferenceable(8) ptr @_ZSt3minImERKT_S2_S2_(ptr noundef nonnull align 8 dereferenceable(8) %13, ptr noundef nonnull align 8 dereferenceable(8) %14)
  %40 = load i64, ptr %39, align 8, !tbaa !11
  call void @llvm.lifetime.end.p0(i64 8, ptr %14) #3
  call void @llvm.lifetime.end.p0(i64 8, ptr %13) #3
  store i64 %40, ptr %12, align 8, !tbaa !11
  %41 = load i8, ptr %11, align 1, !tbaa !63, !range !65, !noundef !66
  %42 = trunc i8 %41 to i1
  br i1 %42, label %43, label %51

43:                                               ; preds = %34
  %44 = load i64, ptr %8, align 8, !tbaa !11
  %45 = load ptr, ptr %16, align 8, !tbaa !27
  %46 = getelementptr inbounds ptr, ptr %45, i64 5
  %47 = load ptr, ptr %46, align 8
  %48 = call noundef ptr %47(ptr noundef nonnull align 8 dereferenceable(64) %16, i64 noundef %44)
  %49 = load ptr, ptr %10, align 8, !tbaa !22
  %50 = load i64, ptr %12, align 8, !tbaa !11
  call void @llvm.memcpy.p0.p0.i64(ptr align 1 %48, ptr align 1 %49, i64 %50, i1 false)
  br label %59

51:                                               ; preds = %34
  %52 = load ptr, ptr %10, align 8, !tbaa !22
  %53 = load i64, ptr %8, align 8, !tbaa !11
  %54 = load ptr, ptr %16, align 8, !tbaa !27
  %55 = getelementptr inbounds ptr, ptr %54, i64 5
  %56 = load ptr, ptr %55, align 8
  %57 = call noundef ptr %56(ptr noundef nonnull align 8 dereferenceable(64) %16, i64 noundef %53)
  %58 = load i64, ptr %12, align 8, !tbaa !11
  call void @llvm.memcpy.p0.p0.i64(ptr align 1 %52, ptr align 1 %57, i64 %58, i1 false)
  br label %59

59:                                               ; preds = %51, %43
  %60 = load i64, ptr %12, align 8, !tbaa !11
  %61 = load i64, ptr %8, align 8, !tbaa !11
  %62 = add i64 %61, %60
  store i64 %62, ptr %8, align 8, !tbaa !11
  %63 = load i64, ptr %12, align 8, !tbaa !11
  %64 = load ptr, ptr %10, align 8, !tbaa !22
  %65 = getelementptr inbounds nuw i8, ptr %64, i64 %63
  store ptr %65, ptr %10, align 8, !tbaa !22
  %66 = load i64, ptr %12, align 8, !tbaa !11
  %67 = load i64, ptr %9, align 8, !tbaa !11
  %68 = sub i64 %67, %66
  store i64 %68, ptr %9, align 8, !tbaa !11
  call void @llvm.lifetime.end.p0(i64 8, ptr %12) #3
  br label %31, !llvm.loop !67

69:                                               ; preds = %31
  store i1 true, ptr %6, align 1
  br label %70

70:                                               ; preds = %69, %29
  %71 = load i1, ptr %6, align 1
  ret i1 %71
}