; Function Attrs: mustprogress uwtable
define noundef zeroext i1 @_ZN5mem_t10load_storeEmmPhb(ptr noundef nonnull align 8 dereferenceable(64) %0, i64 noundef %1, i64 noundef %2, ptr noundef captures(none) %3, i1 noundef zeroext %4) local_unnamed_addr #5 align 2 {
  %6 = add i64 %2, %1
  %7 = icmp uge i64 %6, %1
  %8 = getelementptr inbounds nuw i8, ptr %0, i64 56
  %9 = load i64, ptr %8, align 8
  %10 = icmp ule i64 %6, %9
  %or.cond.not = select i1 %7, i1 %10, i1 false
  %.not34 = icmp ne i64 %2, 0
  %or.cond.not38 = and i1 %.not34, %or.cond.not
  br i1 %or.cond.not38, label %.lr.ph, label %.loopexit

.lr.ph:                                           ; preds = %5
  br i1 %4, label %.lr.ph.split.us, label %.lr.ph.split

.lr.ph.split.us:                                  ; preds = %.lr.ph, %.lr.ph.split.us
  %.02237.us = phi i64 [ %17, %.lr.ph.split.us ], [ %1, %.lr.ph ]
  %.02336.us = phi ptr [ %18, %.lr.ph.split.us ], [ %3, %.lr.ph ]
  %.02435.us = phi i64 [ %19, %.lr.ph.split.us ], [ %2, %.lr.ph ]
  %11 = and i64 %.02237.us, 4095
  %12 = sub nuw nsw i64 4096, %11
  %.sroa.speculated.us = tail call i64 @llvm.umin.i64(i64 %.02435.us, i64 %12)
  %13 = load ptr, ptr %0, align 8, !tbaa !27
  %14 = getelementptr inbounds nuw i8, ptr %13, i64 40
  %15 = load ptr, ptr %14, align 8
  %16 = tail call noundef ptr %15(ptr noundef nonnull align 8 dereferenceable(64) %0, i64 noundef %.02237.us)
  tail call void @llvm.memcpy.p0.p0.i64(ptr align 1 %16, ptr align 1 %.02336.us, i64 %.sroa.speculated.us, i1 false)
  %17 = add i64 %.sroa.speculated.us, %.02237.us
  %18 = getelementptr inbounds nuw i8, ptr %.02336.us, i64 %.sroa.speculated.us
  %19 = sub i64 %.02435.us, %.sroa.speculated.us
  %.not.us = icmp eq i64 %19, 0
  br i1 %.not.us, label %.loopexit, label %.lr.ph.split.us, !llvm.loop !41

.lr.ph.split:                                     ; preds = %.lr.ph, %.lr.ph.split
  %.02237 = phi i64 [ %26, %.lr.ph.split ], [ %1, %.lr.ph ]
  %.02336 = phi ptr [ %27, %.lr.ph.split ], [ %3, %.lr.ph ]
  %.02435 = phi i64 [ %28, %.lr.ph.split ], [ %2, %.lr.ph ]
  %20 = and i64 %.02237, 4095
  %21 = sub nuw nsw i64 4096, %20
  %.sroa.speculated = tail call i64 @llvm.umin.i64(i64 %.02435, i64 %21)
  %22 = load ptr, ptr %0, align 8, !tbaa !27
  %23 = getelementptr inbounds nuw i8, ptr %22, i64 40
  %24 = load ptr, ptr %23, align 8
  %25 = tail call noundef ptr %24(ptr noundef nonnull align 8 dereferenceable(64) %0, i64 noundef %.02237)
  tail call void @llvm.memcpy.p0.p0.i64(ptr align 1 %.02336, ptr align 1 %25, i64 %.sroa.speculated, i1 false)
  %26 = add i64 %.sroa.speculated, %.02237
  %27 = getelementptr inbounds nuw i8, ptr %.02336, i64 %.sroa.speculated
  %28 = sub i64 %.02435, %.sroa.speculated
  %.not = icmp eq i64 %28, 0
  br i1 %.not, label %.loopexit, label %.lr.ph.split, !llvm.loop !41

.loopexit:                                        ; preds = %.lr.ph.split, %.lr.ph.split.us, %5
  ret i1 %or.cond.not
}